target datalayout = "e-m:e-p270:32:32-p271:32:32-p272:64:64-i64:64-i128:128-f80:128-n8:16:32:64-S128"
target triple = "x86_64-pc-linux-gnu"

%"class.mitsuba::MemoryStream" = type <{ %"class.mitsuba::Stream", i64, i64, i64, i8, [7 x i8], ptr, i8, [7 x i8] }>
%"class.mitsuba::Stream" = type { %"class.mitsuba::Object.base", i32 }
%"class.mitsuba::Object.base" = type <{ ptr, %"struct.std::__1::atomic" }>
%"struct.std::__1::atomic" = type { %"struct.std::__1::__atomic_base" }
%"struct.std::__1::__atomic_base" = type { %"struct.std::__1::__atomic_base.0" }
%"struct.std::__1::__atomic_base.0" = type { %"struct.std::__1::__cxx_atomic_impl" }
%"struct.std::__1::__cxx_atomic_impl" = type { %"struct.std::__1::__cxx_atomic_base_impl" }
%"struct.std::__1::__cxx_atomic_base_impl" = type { i32 }
%"class.std::__1::basic_string" = type { %"class.std::__1::__compressed_pair" }
%"class.std::__1::__compressed_pair" = type { %"struct.std::__1::__compressed_pair_elem" }
%"struct.std::__1::__compressed_pair_elem" = type { %"struct.std::__1::basic_string<char>::__rep" }
%"struct.std::__1::basic_string<char>::__rep" = type { %union.anon }
%union.anon = type { %"struct.std::__1::basic_string<char>::__long" }
%"struct.std::__1::basic_string<char>::__long" = type { %struct.anon.1, i64, ptr }
%struct.anon.1 = type { i64 }

@_ZN7mitsuba12MemoryStream7m_classE = global ptr null, align 8
@.str = private unnamed_addr constant [116 x i8] c"generated/home/dtcxzyw/WorkSpace/Projects/compilers/llvm-opt-benchmark/bench/mitsuba3/mitsuba3/src/core/mstream.cpp\00", align 1
@.str.2 = private unnamed_addr constant [42 x i8] c"Attempted to write to a closed stream: %s\00", align 1

; Function Attrs: mustprogress uwtable
define void @_ZN7mitsuba12MemoryStream5writeEPKvm(ptr noundef nonnull align 8 dereferenceable(57) %0, ptr noundef %1, i64 noundef %2) unnamed_addr #0 align 2 personality ptr @__gxx_personality_v0 {
  %4 = alloca ptr, align 8
  %5 = alloca ptr, align 8
  %6 = alloca i64, align 8
  %7 = alloca %"class.std::__1::basic_string", align 8
  %8 = alloca %"class.std::__1::basic_string", align 8
  %9 = alloca ptr, align 8
  %10 = alloca i32, align 4
  %11 = alloca i64, align 8
  %12 = alloca i64, align 8
  store ptr %0, ptr %4, align 8
  store ptr %1, ptr %5, align 8
  store i64 %2, ptr %6, align 8
  %13 = load ptr, ptr %4, align 8
  %14 = load ptr, ptr %13, align 8
  %15 = getelementptr inbounds ptr, ptr %14, i64 10
  %16 = load ptr, ptr %15, align 8
  %17 = call noundef zeroext i1 %16(ptr noundef nonnull align 8 dereferenceable(57) %13)
  br i1 %17, label %18, label %36

18:                                               ; preds = %3
  br label %19

19:                                               ; preds = %18
  %20 = load ptr, ptr @_ZN7mitsuba12MemoryStream7m_classE, align 8
  %21 = load ptr, ptr %13, align 8
  %22 = getelementptr inbounds ptr, ptr %21, i64 6
  %23 = load ptr, ptr %22, align 8
  call void %23(ptr dead_on_unwind writable sret(%"class.std::__1::basic_string") align 8 %8, ptr noundef nonnull align 8 dereferenceable(57) %13)
  invoke void @_ZN10tinyformat6formatIJNSt3__112basic_stringIcNS1_11char_traitsIcEENS1_9allocatorIcEEEEEEES7_PKcDpRKT_(ptr dead_on_unwind writable sret(%"class.std::__1::basic_string") align 8 %7, ptr noundef @.str.2, ptr noundef nonnull align 8 dereferenceable(24) %8)
          to label %24 unwind label %26

24:                                               ; preds = %19
  invoke void @_ZN7mitsuba6detail5ThrowENS_8LogLevelEPKNS_5ClassEPKciRKNSt3__112basic_stringIcNS7_11char_traitsIcEENS7_9allocatorIcEEEE(i32 noundef 400, ptr noundef %20, ptr noundef @.str, i32 noundef 40, ptr noundef nonnull align 8 dereferenceable(24) %7) #16
          to label %25 unwind label %30

25:                                               ; preds = %24
  unreachable

26:                                               ; preds = %19
  %27 = landingpad { ptr, i32 }
          cleanup
  %28 = extractvalue { ptr, i32 } %27, 0
  store ptr %28, ptr %9, align 8
  %29 = extractvalue { ptr, i32 } %27, 1
  store i32 %29, ptr %10, align 4
  br label %34

30:                                               ; preds = %24
  %31 = landingpad { ptr, i32 }
          cleanup
  %32 = extractvalue { ptr, i32 } %31, 0
  store ptr %32, ptr %9, align 8
  %33 = extractvalue { ptr, i32 } %31, 1
  store i32 %33, ptr %10, align 4
  call void @_ZNSt3__112basic_stringIcNS_11char_traitsIcEENS_9allocatorIcEEED1Ev(ptr noundef nonnull align 8 dereferenceable(24) %7) #15
  br label %34

34:                                               ; preds = %30, %26
  call void @_ZNSt3__112basic_stringIcNS_11char_traitsIcEENS_9allocatorIcEEED1Ev(ptr noundef nonnull align 8 dereferenceable(24) %8) #15
  br label %75

35:                                               ; No predecessors!
  br label %36

36:                                               ; preds = %35, %3
  %37 = getelementptr inbounds %"class.mitsuba::MemoryStream", ptr %13, i32 0, i32 3
  %38 = load i64, ptr %37, align 8
  %39 = load i64, ptr %6, align 8
  %40 = add i64 %38, %39
  store i64 %40, ptr %11, align 8
  %41 = load i64, ptr %11, align 8
  %42 = getelementptr inbounds %"class.mitsuba::MemoryStream", ptr %13, i32 0, i32 2
  %43 = load i64, ptr %42, align 8
  %44 = icmp ugt i64 %41, %43
  br i1 %44, label %45, label %65

45:                                               ; preds = %36
  %46 = load i64, ptr %11, align 8
  %47 = getelementptr inbounds %"class.mitsuba::MemoryStream", ptr %13, i32 0, i32 1
  %48 = load i64, ptr %47, align 8
  %49 = icmp ugt i64 %46, %48
  br i1 %49, label %50, label %62

50:                                               ; preds = %45
  %51 = getelementptr inbounds %"class.mitsuba::MemoryStream", ptr %13, i32 0, i32 1
  %52 = load i64, ptr %51, align 8
  store i64 %52, ptr %12, align 8
  br label %53

53:                                               ; preds = %56, %50
  %54 = load i64, ptr %12, align 8
  %55 = mul i64 %54, 2
  store i64 %55, ptr %12, align 8
  br label %56

56:                                               ; preds = %53
  %57 = load i64, ptr %11, align 8
  %58 = load i64, ptr %12, align 8
  %59 = icmp ugt i64 %57, %58
  br i1 %59, label %53, label %60, !llvm.loop !4

60:                                               ; preds = %56
  %61 = load i64, ptr %12, align 8
  call void @_ZN7mitsuba12MemoryStream6resizeEm(ptr noundef nonnull align 8 dereferenceable(57) %13, i64 noundef %61)
  br label %62

62:                                               ; preds = %60, %45
  %63 = load i64, ptr %11, align 8
  %64 = getelementptr inbounds %"class.mitsuba::MemoryStream", ptr %13, i32 0, i32 2
  store i64 %63, ptr %64, align 8
  br label %65

65:                                               ; preds = %62, %36
  %66 = getelementptr inbounds %"class.mitsuba::MemoryStream", ptr %13, i32 0, i32 6
  %67 = load ptr, ptr %66, align 8
  %68 = getelementptr inbounds %"class.mitsuba::MemoryStream", ptr %13, i32 0, i32 3
  %69 = load i64, ptr %68, align 8
  %70 = getelementptr inbounds i8, ptr %67, i64 %69
  %71 = load ptr, ptr %5, align 8
  %72 = load i64, ptr %6, align 8
  call void @llvm.memcpy.p0.p0.i64(ptr align 1 %70, ptr align 1 %71, i64 %72, i1 false)
  %73 = load i64, ptr %11, align 8
  %74 = getelementptr inbounds %"class.mitsuba::MemoryStream", ptr %13, i32 0, i32 3
  store i64 %73, ptr %74, align 8
  ret void

75:                                               ; preds = %34
  %76 = load ptr, ptr %9, align 8
  %77 = load i32, ptr %10, align 4
  %78 = insertvalue { ptr, i32 } poison, ptr %76, 0
  %79 = insertvalue { ptr, i32 } %78, i32 %77, 1
  resume { ptr, i32 } %79
}