; Function Attrs: mustprogress uwtable
define void @_ZN7mitsuba12MemoryStream5writeEPKvm(ptr noundef nonnull align 8 dereferenceable(57) %0, ptr nocapture noundef readonly %1, i64 noundef %2) unnamed_addr #0 align 2 personality ptr @__gxx_personality_v0 {
  %4 = alloca %"class.std::__1::basic_string", align 8
  %5 = alloca %"class.std::__1::basic_string", align 8
  %6 = load ptr, ptr %0, align 8
  %7 = getelementptr inbounds i8, ptr %6, i64 80
  %8 = load ptr, ptr %7, align 8
  %9 = tail call noundef zeroext i1 %8(ptr noundef nonnull align 8 dereferenceable(57) %0)
  br i1 %9, label %10, label %22

10:                                               ; preds = %3
  %11 = load ptr, ptr @_ZN7mitsuba12MemoryStream7m_classE, align 8
  %12 = load ptr, ptr %0, align 8
  %13 = getelementptr inbounds i8, ptr %12, i64 48
  %14 = load ptr, ptr %13, align 8
  call void %14(ptr dead_on_unwind nonnull writable sret(%"class.std::__1::basic_string") align 8 %5, ptr noundef nonnull align 8 dereferenceable(57) %0)
  invoke void @_ZN10tinyformat6formatIJNSt3__112basic_stringIcNS1_11char_traitsIcEENS1_9allocatorIcEEEEEEES7_PKcDpRKT_(ptr dead_on_unwind nonnull writable sret(%"class.std::__1::basic_string") align 8 %4, ptr noundef nonnull @.str.2, ptr noundef nonnull align 8 dereferenceable(24) %5)
          to label %15 unwind label %17

15:                                               ; preds = %10
  invoke void @_ZN7mitsuba6detail5ThrowENS_8LogLevelEPKNS_5ClassEPKciRKNSt3__112basic_stringIcNS7_11char_traitsIcEENS7_9allocatorIcEEEE(i32 noundef 400, ptr noundef %11, ptr noundef nonnull @.str, i32 noundef 40, ptr noundef nonnull align 8 dereferenceable(24) %4) #18
          to label %16 unwind label %19

16:                                               ; preds = %15
  unreachable

17:                                               ; preds = %10
  %18 = landingpad { ptr, i32 }
          cleanup
  br label %21

19:                                               ; preds = %15
  %20 = landingpad { ptr, i32 }
          cleanup
  call void @_ZNSt3__112basic_stringIcNS_11char_traitsIcEENS_9allocatorIcEEED1Ev(ptr noundef nonnull align 8 dereferenceable(24) %4) #17
  br label %21

21:                                               ; preds = %19, %17
  %.pn = phi { ptr, i32 } [ %20, %19 ], [ %18, %17 ]
  call void @_ZNSt3__112basic_stringIcNS_11char_traitsIcEENS_9allocatorIcEEED1Ev(ptr noundef nonnull align 8 dereferenceable(24) %5) #17
  resume { ptr, i32 } %.pn

22:                                               ; preds = %3
  %23 = getelementptr inbounds i8, ptr %0, i64 32
  %24 = load i64, ptr %23, align 8
  %25 = add i64 %24, %2
  %26 = getelementptr inbounds i8, ptr %0, i64 24
  %27 = load i64, ptr %26, align 8
  %28 = icmp ugt i64 %25, %27
  br i1 %28, label %29, label %37

29:                                               ; preds = %22
  %30 = getelementptr inbounds i8, ptr %0, i64 16
  %31 = load i64, ptr %30, align 8
  %32 = icmp ugt i64 %25, %31
  br i1 %32, label %.preheader, label %36

.preheader:                                       ; preds = %29, %.preheader
  %.0 = phi i64 [ %33, %.preheader ], [ %31, %29 ]
  %33 = shl i64 %.0, 1
  %34 = icmp ugt i64 %25, %33
  br i1 %34, label %.preheader, label %35, !llvm.loop !7

35:                                               ; preds = %.preheader
  tail call void @_ZN7mitsuba12MemoryStream6resizeEm(ptr noundef nonnull align 8 dereferenceable(57) %0, i64 noundef %33)
  %.pre.pre = load i64, ptr %23, align 8
  br label %36

36:                                               ; preds = %35, %29
  %.pre = phi i64 [ %.pre.pre, %35 ], [ %24, %29 ]
  store i64 %25, ptr %26, align 8
  br label %37

37:                                               ; preds = %36, %22
  %38 = phi i64 [ %.pre, %36 ], [ %24, %22 ]
  %39 = getelementptr inbounds i8, ptr %0, i64 48
  %40 = load ptr, ptr %39, align 8
  %41 = getelementptr inbounds i8, ptr %40, i64 %38
  tail call void @llvm.memcpy.p0.p0.i64(ptr align 1 %41, ptr align 1 %1, i64 %2, i1 false)
  store i64 %25, ptr %23, align 8
  ret void
}